; Function Attrs: nounwind sspstrong uwtable
define internal i64 @enum_first(i32 noundef %0, ptr noundef readonly captures(none) %1, i64 noundef %2) #0 {
  %or.cond.i = icmp ugt i32 %0, 1
  br i1 %or.cond.i, label %4, label %rb_check_arity.exit

4:                                                ; preds = %3
  tail call void @rb_error_arity(i32 noundef %0, i32 noundef 0, i32 noundef 1) #15
  unreachable

rb_check_arity.exit:                              ; preds = %3
  %5 = icmp eq i32 %0, 1
  br i1 %5, label %6, label %9

6:                                                ; preds = %rb_check_arity.exit
  %7 = load i64, ptr %1, align 8, !tbaa !7
  %8 = tail call i64 @enum_take(i64 noundef %2, i64 noundef %7)
  br label %16

9:                                                ; preds = %rb_check_arity.exit
  %10 = tail call i64 @rb_imemo_new(i32 noundef 5, i64 noundef 0, i64 noundef 40) #14
  %11 = inttoptr i64 %10 to ptr
  %12 = getelementptr inbounds nuw i8, ptr %11, i64 16
  store i64 4, ptr %12, align 8, !tbaa !7
  %13 = getelementptr inbounds nuw i8, ptr %11, i64 24
  tail call void @llvm.memset.p0.i64(ptr noundef nonnull align 8 dereferenceable(16) %13, i8 0, i64 16, i1 false)
  %14 = tail call i64 @rb_block_call(i64 noundef %2, i64 noundef 3073, i32 noundef 0, ptr noundef null, ptr noundef nonnull @first_i, i64 noundef %10) #14
  %15 = load i64, ptr %12, align 8, !tbaa !60
  br label %16

16:                                               ; preds = %9, %6
  %.0 = phi i64 [ %8, %6 ], [ %15, %9 ]
  ret i64 %.0
}